target datalayout = "e-m:e-p270:32:32-p271:32:32-p272:64:64-i64:64-i128:128-f80:128-n8:16:32:64-S128"
target triple = "x86_64-unknown-linux-gnu"

%"class.icu_75::RuleBasedBreakIterator" = type <{ %"class.icu_75::BreakIterator.base", i8, %struct.UText, ptr, i32, i32, i32, [4 x i8], ptr, ptr, ptr, ptr, i32, [4 x i8], ptr, %"class.icu_75::UCharCharacterIterator", i8, [7 x i8], ptr, i8, [7 x i8] }>
%"class.icu_75::BreakIterator.base" = type <{ %"class.icu_75::UObject", [157 x i8], [157 x i8], [157 x i8] }>
%"class.icu_75::UObject" = type { ptr }
%struct.UText = type { i32, i32, i32, i32, i64, i32, i32, i64, i32, i32, ptr, ptr, ptr, ptr, ptr, ptr, ptr, ptr, i64, i32, i32, i64, i32, i32 }
%"class.icu_75::UCharCharacterIterator" = type { %"class.icu_75::CharacterIterator", ptr }
%"class.icu_75::CharacterIterator" = type { %"class.icu_75::ForwardCharacterIterator", i32, i32, i32, i32 }
%"class.icu_75::ForwardCharacterIterator" = type { %"class.icu_75::UObject" }

; Function Attrs: mustprogress nounwind uwtable
define linkonce_odr noundef i32 @_ZNK6icu_7517CharacterIterator10startIndexEv(ptr noundef nonnull align 8 dereferenceable(24) %this) #0 comdat align 2 {
entry:
  %this.addr = alloca ptr, align 8
  store ptr %this, ptr %this.addr, align 8
  %this1 = load ptr, ptr %this.addr, align 8
  %begin = getelementptr inbounds %"class.icu_75::CharacterIterator", ptr %this1, i32 0, i32 3
  %0 = load i32, ptr %begin, align 8
  ret i32 %0
}

; Function Attrs: mustprogress uwtable
define void @_ZN6icu_7522RuleBasedBreakIterator9adoptTextEPNS_17CharacterIteratorE(ptr noundef nonnull align 8 dereferenceable(745) %this, ptr noundef %newText) unnamed_addr #1 align 2 {
entry:
  %this.addr = alloca ptr, align 8
  %newText.addr = alloca ptr, align 8
  %status = alloca i32, align 4
  store ptr %this, ptr %this.addr, align 8
  store ptr %newText, ptr %newText.addr, align 8
  %this1 = load ptr, ptr %this.addr, align 8
  %fCharIter = getelementptr inbounds %"class.icu_75::RuleBasedBreakIterator", ptr %this1, i32 0, i32 14
  %0 = load ptr, ptr %fCharIter, align 8
  %fSCharIter = getelementptr inbounds %"class.icu_75::RuleBasedBreakIterator", ptr %this1, i32 0, i32 15
  %cmp = icmp ne ptr %0, %fSCharIter
  br i1 %cmp, label %if.then, label %if.end

if.then:                                          ; preds = %entry
  %fCharIter2 = getelementptr inbounds %"class.icu_75::RuleBasedBreakIterator", ptr %this1, i32 0, i32 14
  %1 = load ptr, ptr %fCharIter2, align 8
  %isnull = icmp eq ptr %1, null
  br i1 %isnull, label %delete.end, label %delete.notnull

delete.notnull:                                   ; preds = %if.then
  %vtable = load ptr, ptr %1, align 8
  %vfn = getelementptr inbounds ptr, ptr %vtable, i64 1
  %2 = load ptr, ptr %vfn, align 8
  call void %2(ptr noundef nonnull align 8 dereferenceable(24) %1) #6
  br label %delete.end

delete.end:                                       ; preds = %delete.notnull, %if.then
  br label %if.end

if.end:                                           ; preds = %delete.end, %entry
  %3 = load ptr, ptr %newText.addr, align 8
  %fCharIter3 = getelementptr inbounds %"class.icu_75::RuleBasedBreakIterator", ptr %this1, i32 0, i32 14
  store ptr %3, ptr %fCharIter3, align 8
  store i32 0, ptr %status, align 4
  %fBreakCache = getelementptr inbounds %"class.icu_75::RuleBasedBreakIterator", ptr %this1, i32 0, i32 8
  %4 = load ptr, ptr %fBreakCache, align 8
  call void @_ZN6icu_7522RuleBasedBreakIterator10BreakCache5resetEii(ptr noundef nonnull align 8 dereferenceable(832) %4, i32 noundef 0, i32 noundef 0)
  %fDictionaryCache = getelementptr inbounds %"class.icu_75::RuleBasedBreakIterator", ptr %this1, i32 0, i32 9
  %5 = load ptr, ptr %fDictionaryCache, align 8
  call void @_ZN6icu_7522RuleBasedBreakIterator15DictionaryCache5resetEv(ptr noundef nonnull align 8 dereferenceable(60) %5)
  %6 = load ptr, ptr %newText.addr, align 8
  %cmp4 = icmp eq ptr %6, null
  br i1 %cmp4, label %if.then6, label %lor.lhs.false

lor.lhs.false:                                    ; preds = %if.end
  %7 = load ptr, ptr %newText.addr, align 8
  %call = call noundef i32 @_ZNK6icu_7517CharacterIterator10startIndexEv(ptr noundef nonnull align 8 dereferenceable(24) %7)
  %cmp5 = icmp ne i32 %call, 0
  br i1 %cmp5, label %if.then6, label %if.else

if.then6:                                         ; preds = %lor.lhs.false, %if.end
  %fText = getelementptr inbounds %"class.icu_75::RuleBasedBreakIterator", ptr %this1, i32 0, i32 2
  %call7 = call ptr @utext_openUChars_75(ptr noundef %fText, ptr noundef null, i64 noundef 0, ptr noundef %status)
  br label %if.end10

if.else:                                          ; preds = %lor.lhs.false
  %fText8 = getelementptr inbounds %"class.icu_75::RuleBasedBreakIterator", ptr %this1, i32 0, i32 2
  %8 = load ptr, ptr %newText.addr, align 8
  %call9 = call ptr @utext_openCharacterIterator_75(ptr noundef %fText8, ptr noundef %8, ptr noundef %status)
  br label %if.end10

if.end10:                                         ; preds = %if.else, %if.then6
  %vtable11 = load ptr, ptr %this1, align 8
  %vfn12 = getelementptr inbounds ptr, ptr %vtable11, i64 10
  %9 = load ptr, ptr %vfn12, align 8
  %call13 = call noundef i32 %9(ptr noundef nonnull align 8 dereferenceable(745) %this1)
  ret void
}