; Function Attrs: mustprogress uwtable
define void @_ZN6icu_7522RuleBasedBreakIterator9adoptTextEPNS_17CharacterIteratorE(ptr noundef nonnull align 8 dereferenceable(745) %this, ptr noundef %newText) unnamed_addr #1 align 2 {
entry:
  %status = alloca i32, align 4
  %fCharIter = getelementptr inbounds i8, ptr %this, i64 688
  %0 = load ptr, ptr %fCharIter, align 8
  %fSCharIter = getelementptr inbounds i8, ptr %this, i64 696
  %cmp.not = icmp eq ptr %0, %fSCharIter
  %isnull = icmp eq ptr %0, null
  %or.cond = or i1 %cmp.not, %isnull
  br i1 %or.cond, label %if.end, label %delete.notnull

delete.notnull:                                   ; preds = %entry
  %vtable = load ptr, ptr %0, align 8
  %vfn = getelementptr inbounds i8, ptr %vtable, i64 8
  %1 = load ptr, ptr %vfn, align 8
  tail call void %1(ptr noundef nonnull align 8 dereferenceable(24) %0) #15
  br label %if.end

if.end:                                           ; preds = %delete.notnull, %entry
  store ptr %newText, ptr %fCharIter, align 8
  store i32 0, ptr %status, align 4
  %fBreakCache = getelementptr inbounds i8, ptr %this, i64 648
  %2 = load ptr, ptr %fBreakCache, align 8
  tail call void @_ZN6icu_7522RuleBasedBreakIterator10BreakCache5resetEii(ptr noundef nonnull align 8 dereferenceable(832) %2, i32 noundef 0, i32 noundef 0)
  %fDictionaryCache = getelementptr inbounds i8, ptr %this, i64 656
  %3 = load ptr, ptr %fDictionaryCache, align 8
  tail call void @_ZN6icu_7522RuleBasedBreakIterator15DictionaryCache5resetEv(ptr noundef nonnull align 8 dereferenceable(60) %3)
  %cmp4 = icmp eq ptr %newText, null
  br i1 %cmp4, label %if.then6, label %lor.lhs.false

lor.lhs.false:                                    ; preds = %if.end
  %begin.i = getelementptr inbounds i8, ptr %newText, i64 16
  %4 = load i32, ptr %begin.i, align 8
  %cmp5.not = icmp eq i32 %4, 0
  br i1 %cmp5.not, label %if.else, label %if.then6

if.then6:                                         ; preds = %lor.lhs.false, %if.end
  %fText = getelementptr inbounds i8, ptr %this, i64 480
  %call7 = call ptr @utext_openUChars_75(ptr noundef nonnull %fText, ptr noundef null, i64 noundef 0, ptr noundef nonnull %status)
  br label %if.end10

if.else:                                          ; preds = %lor.lhs.false
  %fText8 = getelementptr inbounds i8, ptr %this, i64 480
  %call9 = call ptr @utext_openCharacterIterator_75(ptr noundef nonnull %fText8, ptr noundef nonnull %newText, ptr noundef nonnull %status)
  br label %if.end10

if.end10:                                         ; preds = %if.else, %if.then6
  %vtable11 = load ptr, ptr %this, align 8
  %vfn12 = getelementptr inbounds i8, ptr %vtable11, i64 80
  %5 = load ptr, ptr %vfn12, align 8
  %call13 = call noundef i32 %5(ptr noundef nonnull align 8 dereferenceable(745) %this)
  ret void
}